(dp1
S'sort_id'
p2
NsS'sort_order'
p3
NsS'columns'
p4
(dp5
S'Dimensione'
p6
(dp7
S'position'
p8
I1
sS'width'
p9
I50
ssS'Avanzamento'
p10
(dp11
g8
I2
sg9
I100
ssS'Nome file'
p12
(dp13
g8
I0
sg9
I200
ssS'Priorit\xc3\xa0'
p14
(dp15
g8
I3
sg9
I789
sss.