(dp1
S'sort_id'
p2
NsS'sort_order'
p3
NsS'columns'
p4
(dp5
S'Velocit\xc3\xa0 di Scaricamento'
p6
(dp7
S'position'
p8
I4
sS'width'
p9
I50
ssS'Indirizzo'
p10
(dp11
g8
I1
sg9
I100
ssN(dp12
g8
I0
sg9
I20
ssS"Velocit\xc3\xa0 d'invio"
p13
(dp14
g8
I5
sg9
I769
ssS'Client'
p15
(dp16
g8
I2
sg9
I100
ssS'Avanzamento'
p17
(dp18
g8
I3
sg9
I100
sss.